; Function Attrs: mustprogress uwtable
define internal fastcc void @_ZN12_GLOBAL__N_119elim_uncnstr_tacticC2ER11ast_managerRK10params_ref(ptr noundef nonnull align 8 dereferenceable(120) initializes((0, 12), (16, 32)) %0, ptr noundef nonnull align 8 dereferenceable(976) %1, ptr noundef nonnull align 8 dereferenceable(8) %2) unnamed_addr #3 align 2 personality ptr @__gxx_personality_v0 {
  %4 = getelementptr inbounds nuw i8, ptr %0, i64 8
  store i32 0, ptr %4, align 8, !tbaa !3
  store ptr getelementptr inbounds nuw inrange(-16, 192) (i8, ptr @_ZTVN12_GLOBAL__N_119elim_uncnstr_tacticE, i64 16), ptr %0, align 8, !tbaa !9
  %5 = getelementptr inbounds nuw i8, ptr %0, i64 16
  store ptr %1, ptr %5, align 8, !tbaa !11
  %6 = getelementptr inbounds nuw i8, ptr %0, i64 24
  store ptr null, ptr %6, align 8, !tbaa !14
  %7 = getelementptr inbounds nuw i8, ptr %0, i64 32
  %8 = invoke noalias noundef ptr @_ZN6memory8allocateEm(i64 noundef 64)
          to label %9 unwind label %27

9:                                                ; preds = %3
  tail call void @llvm.memset.p0.i64(ptr noundef nonnull align 8 dereferenceable(64) %8, i8 0, i64 64, i1 false), !tbaa !17
  store ptr %8, ptr %7, align 8, !tbaa !20
  %10 = getelementptr inbounds nuw i8, ptr %0, i64 40
  store i32 8, ptr %10, align 8, !tbaa !23
  %11 = getelementptr inbounds nuw i8, ptr %0, i64 44
  store i32 0, ptr %11, align 4, !tbaa !24
  %12 = getelementptr inbounds nuw i8, ptr %0, i64 48
  store i32 0, ptr %12, align 8, !tbaa !25
  %13 = getelementptr inbounds nuw i8, ptr %0, i64 56
  %14 = invoke noalias noundef ptr @_ZN6memory8allocateEm(i64 noundef 64)
          to label %15 unwind label %29

15:                                               ; preds = %9
  tail call void @llvm.memset.p0.i64(ptr noundef nonnull align 8 dereferenceable(64) %14, i8 0, i64 64, i1 false), !tbaa !17
  store ptr %14, ptr %13, align 8, !tbaa !20
  %16 = getelementptr inbounds nuw i8, ptr %0, i64 64
  store i32 8, ptr %16, align 8, !tbaa !23
  %17 = getelementptr inbounds nuw i8, ptr %0, i64 68
  store i32 0, ptr %17, align 4, !tbaa !24
  %18 = getelementptr inbounds nuw i8, ptr %0, i64 72
  store i32 0, ptr %18, align 8, !tbaa !25
  %19 = getelementptr inbounds nuw i8, ptr %0, i64 80
  store ptr null, ptr %19, align 8, !tbaa !26
  %20 = getelementptr inbounds nuw i8, ptr %0, i64 88
  store i32 0, ptr %20, align 8, !tbaa !29
  %21 = getelementptr inbounds nuw i8, ptr %0, i64 112
  invoke void @_ZN10params_refC1ERKS_(ptr noundef nonnull align 8 dereferenceable(8) %21, ptr noundef nonnull align 8 dereferenceable(8) %2)
          to label %22 unwind label %31

22:                                               ; preds = %15
  %23 = load ptr, ptr %0, align 8, !tbaa !9
  %24 = getelementptr inbounds nuw i8, ptr %23, i64 104
  %25 = load ptr, ptr %24, align 8
  invoke void %25(ptr noundef nonnull align 8 dereferenceable(120) %0, ptr noundef nonnull align 8 dereferenceable(8) %2)
          to label %26 unwind label %33

26:                                               ; preds = %22
  ret void

27:                                               ; preds = %3
  %28 = landingpad { ptr, i32 }
          cleanup
  br label %37

29:                                               ; preds = %9
  %30 = landingpad { ptr, i32 }
          cleanup
  br label %36

31:                                               ; preds = %15
  %32 = landingpad { ptr, i32 }
          cleanup
  br label %35

33:                                               ; preds = %22
  %34 = landingpad { ptr, i32 }
          cleanup
  tail call void @_ZN10params_refD1Ev(ptr noundef nonnull align 8 dereferenceable(8) %21) #24
  br label %35

35:                                               ; preds = %33, %31
  %.pn = phi { ptr, i32 } [ %34, %33 ], [ %32, %31 ]
  %.val = load ptr, ptr %19, align 8, !tbaa !26
  tail call fastcc void @_ZN10scoped_ptrIN12_GLOBAL__N_119elim_uncnstr_tactic2rwEED2Ev(ptr %.val) #24
  tail call void @_ZN14core_hashtableI14obj_hash_entryI4exprE12obj_ptr_hashIS1_E6ptr_eqIS1_EED2Ev(ptr noundef nonnull align 8 dereferenceable(20) %13) #24
  br label %36

36:                                               ; preds = %35, %29
  %.pn.pn = phi { ptr, i32 } [ %.pn, %35 ], [ %30, %29 ]
  tail call void @_ZN14core_hashtableI14obj_hash_entryI4exprE12obj_ptr_hashIS1_E6ptr_eqIS1_EED2Ev(ptr noundef nonnull align 8 dereferenceable(20) %7) #24
  br label %37

37:                                               ; preds = %36, %27
  %.pn.pn.pn = phi { ptr, i32 } [ %.pn.pn, %36 ], [ %28, %27 ]
  tail call void @_ZN3refI23generic_model_converterED2Ev(ptr noundef nonnull align 8 dereferenceable(8) %6) #24
  resume { ptr, i32 } %.pn.pn.pn
}